; Function Attrs: inlinehint nounwind uwtable
define internal void @Abc_Print(i32 noundef range(i32 0, 2) %0, ptr noundef %1, ...) unnamed_addr #8 {
  %3 = alloca [1 x %struct.__va_list_tag], align 16
  call void @llvm.lifetime.start.p0(i64 24, ptr nonnull %3) #19
  %4 = load i32, ptr @enable_dbg_outs, align 4, !tbaa !44
  %.not = icmp eq i32 %4, 0
  br i1 %.not, label %27, label %5

5:                                                ; preds = %2
  %6 = tail call i32 (...) @Abc_FrameIsBridgeMode() #19
  %.not8 = icmp eq i32 %6, 0
  %7 = icmp eq i32 %0, 0
  br i1 %.not8, label %8, label %11

8:                                                ; preds = %5
  br i1 %7, label %9, label %15

9:                                                ; preds = %8
  %10 = tail call i32 (ptr, ...) @printf(ptr noundef nonnull dereferenceable(1) @.str.30)
  br label %15

11:                                               ; preds = %5
  br i1 %7, label %12, label %15

12:                                               ; preds = %11
  %13 = load ptr, ptr @stdout, align 8, !tbaa !74
  %14 = tail call i32 @Gia_ManToBridgeText(ptr noundef %13, i32 noundef 9, ptr noundef nonnull @.str.30) #19
  br label %15

15:                                               ; preds = %12, %11, %9, %8
  call void @llvm.va_start.p0(ptr nonnull %3)
  %16 = call i32 (...) @Abc_FrameIsBridgeMode() #19
  %.not9 = icmp eq i32 %16, 0
  br i1 %.not9, label %23, label %17

17:                                               ; preds = %15
  %18 = call ptr @vnsprintf(ptr noundef %1, ptr noundef nonnull %3) #19
  %19 = load ptr, ptr @stdout, align 8, !tbaa !74
  %20 = call i64 @strlen(ptr noundef nonnull dereferenceable(1) %18) #22
  %21 = trunc i64 %20 to i32
  %22 = call i32 @Gia_ManToBridgeText(ptr noundef %19, i32 noundef %21, ptr noundef nonnull %18) #19
  call void @free(ptr noundef %18) #19
  br label %26

23:                                               ; preds = %15
  %24 = load ptr, ptr @stdout, align 8, !tbaa !74, !noalias !75
  %25 = call i32 @vfprintf(ptr noundef %24, ptr noundef %1, ptr noundef nonnull %3) #19
  br label %26

26:                                               ; preds = %23, %17
  call void @llvm.va_end.p0(ptr nonnull %3)
  br label %27

27:                                               ; preds = %2, %26
  call void @llvm.lifetime.end.p0(i64 24, ptr nonnull %3) #19
  ret void
}